target datalayout = "e-m:e-p270:32:32-p271:32:32-p272:64:64-i64:64-i128:128-f80:128-n8:16:32:64-S128"
target triple = "x86_64-pc-linux-gnu"

%struct.git_hash_algo = type { ptr, i32, i64, i64, i64, ptr, ptr, ptr, ptr, ptr, ptr, ptr, ptr, ptr }
%struct.repository = type { ptr, ptr, ptr, ptr, ptr, %struct.strmap, %struct.strmap, %struct.repo_path_cache, ptr, ptr, ptr, ptr, %struct.repo_settings, ptr, ptr, ptr, ptr, ptr, ptr, i32, i32, i32, ptr, ptr, i32, i32, i8 }
%struct.strmap = type { %struct.hashmap, ptr, i8 }
%struct.hashmap = type { ptr, ptr, ptr, i32, i32, i32, i32, i8 }
%struct.repo_path_cache = type { ptr, ptr, ptr, ptr, ptr, ptr, ptr }
%struct.repo_settings = type { i32, i32, i32, i32, i32, i32, i32, i32, i32, i32, i32, i32, ptr, i32, i32, i32, i32, i32, i32, i32, i64, i64, i64 }
%struct.commit_graph = type { ptr, i64, i8, i8, i32, %struct.object_id, ptr, ptr, i32, i32, ptr, ptr, ptr, ptr, ptr, ptr, i64, ptr, i64, ptr, i64, ptr, ptr, i64, ptr, ptr }
%struct.object_id = type { [32 x i8], i32 }

@the_repository = external global ptr, align 8

; Function Attrs: nounwind uwtable
define internal i32 @write_graph_chunk_base_1(ptr noundef %0, ptr noundef %1) #0 {
  %3 = alloca i32, align 4
  %4 = alloca ptr, align 8
  %5 = alloca ptr, align 8
  %6 = alloca i32, align 4
  %7 = alloca i32, align 4
  store ptr %0, ptr %4, align 8, !tbaa !282
  store ptr %1, ptr %5, align 8, !tbaa !79
  call void @llvm.lifetime.start.p0(i64 4, ptr %6) #12
  store i32 0, ptr %6, align 4, !tbaa !4
  %8 = load ptr, ptr %5, align 8, !tbaa !79
  %9 = icmp ne ptr %8, null
  br i1 %9, label %11, label %10

10:                                               ; preds = %2
  store i32 0, ptr %3, align 4
  store i32 1, ptr %7, align 4
  br label %30

11:                                               ; preds = %2
  %12 = load ptr, ptr %4, align 8, !tbaa !282
  %13 = load ptr, ptr %5, align 8, !tbaa !79
  %14 = getelementptr inbounds nuw %struct.commit_graph, ptr %13, i32 0, i32 10
  %15 = load ptr, ptr %14, align 8, !tbaa !127
  %16 = call i32 @write_graph_chunk_base_1(ptr noundef %12, ptr noundef %15)
  store i32 %16, ptr %6, align 4, !tbaa !4
  %17 = load ptr, ptr %4, align 8, !tbaa !282
  %18 = load ptr, ptr %5, align 8, !tbaa !79
  %19 = getelementptr inbounds nuw %struct.commit_graph, ptr %18, i32 0, i32 5
  %20 = getelementptr inbounds nuw %struct.object_id, ptr %19, i32 0, i32 0
  %21 = getelementptr inbounds [32 x i8], ptr %20, i64 0, i64 0
  %22 = load ptr, ptr @the_repository, align 8, !tbaa !8
  %23 = getelementptr inbounds nuw %struct.repository, ptr %22, i32 0, i32 17
  %24 = load ptr, ptr %23, align 8, !tbaa !74
  %25 = getelementptr inbounds nuw %struct.git_hash_algo, ptr %24, i32 0, i32 2
  %26 = load i64, ptr %25, align 8, !tbaa !75
  %27 = trunc i64 %26 to i32
  call void @hashwrite(ptr noundef %17, ptr noundef %21, i32 noundef %27)
  %28 = load i32, ptr %6, align 4, !tbaa !4
  %29 = add nsw i32 %28, 1
  store i32 %29, ptr %3, align 4
  store i32 1, ptr %7, align 4
  br label %30

30:                                               ; preds = %11, %10
  call void @llvm.lifetime.end.p0(i64 4, ptr %6) #12
  %31 = load i32, ptr %3, align 4
  ret i32 %31
}