; Function Attrs: nounwind uwtable
define internal fastcc range(i32 -2147483646, -2147483648) i32 @write_graph_chunk_base_1(ptr noundef %0, ptr noundef %1) unnamed_addr #0 {
  %.not = icmp eq ptr %1, null
  br i1 %.not, label %common.ret7, label %3

common.ret7:                                      ; preds = %2, %3
  %common.ret7.op = phi i32 [ %14, %3 ], [ 0, %2 ]
  ret i32 %common.ret7.op

3:                                                ; preds = %2
  %4 = getelementptr inbounds nuw i8, ptr %1, i64 88
  %5 = load ptr, ptr %4, align 8, !tbaa !114
  %6 = tail call fastcc i32 @write_graph_chunk_base_1(ptr noundef %0, ptr noundef %5)
  %7 = getelementptr inbounds nuw i8, ptr %1, i64 24
  %8 = load ptr, ptr @the_repository, align 8, !tbaa !4
  %9 = getelementptr inbounds nuw i8, ptr %8, i64 400
  %10 = load ptr, ptr %9, align 8, !tbaa !71
  %11 = getelementptr inbounds nuw i8, ptr %10, i64 16
  %12 = load i64, ptr %11, align 8, !tbaa !72
  %13 = trunc i64 %12 to i32
  tail call void @hashwrite(ptr noundef %0, ptr noundef nonnull %7, i32 noundef %13) #24
  %14 = add nsw i32 %6, 1
  br label %common.ret7
}